target datalayout = "e-m:e-p270:32:32-p271:32:32-p272:64:64-i64:64-i128:128-f80:128-n8:16:32:64-S128"
target triple = "x86_64-pc-linux-gnu"

%struct.errorInfo = type { ptr, ptr, ptr, i32 }

; Function Attrs: nounwind uwtable
define dso_local void @luaErrorInformationDiscard(ptr noundef %0) #0 {
  %2 = alloca ptr, align 8
  store ptr %0, ptr %2, align 8, !tbaa !79
  %3 = load ptr, ptr %2, align 8, !tbaa !79
  %4 = getelementptr inbounds nuw %struct.errorInfo, ptr %3, i32 0, i32 0
  %5 = load ptr, ptr %4, align 8, !tbaa !81
  %6 = icmp ne ptr %5, null
  br i1 %6, label %7, label %11

7:                                                ; preds = %1
  %8 = load ptr, ptr %2, align 8, !tbaa !79
  %9 = getelementptr inbounds nuw %struct.errorInfo, ptr %8, i32 0, i32 0
  %10 = load ptr, ptr %9, align 8, !tbaa !81
  call void @sdsfree(ptr noundef %10)
  br label %11

11:                                               ; preds = %7, %1
  %12 = load ptr, ptr %2, align 8, !tbaa !79
  %13 = getelementptr inbounds nuw %struct.errorInfo, ptr %12, i32 0, i32 1
  %14 = load ptr, ptr %13, align 8, !tbaa !83
  %15 = icmp ne ptr %14, null
  br i1 %15, label %16, label %20

16:                                               ; preds = %11
  %17 = load ptr, ptr %2, align 8, !tbaa !79
  %18 = getelementptr inbounds nuw %struct.errorInfo, ptr %17, i32 0, i32 1
  %19 = load ptr, ptr %18, align 8, !tbaa !83
  call void @sdsfree(ptr noundef %19)
  br label %20

20:                                               ; preds = %16, %11
  %21 = load ptr, ptr %2, align 8, !tbaa !79
  %22 = getelementptr inbounds nuw %struct.errorInfo, ptr %21, i32 0, i32 2
  %23 = load ptr, ptr %22, align 8, !tbaa !84
  %24 = icmp ne ptr %23, null
  br i1 %24, label %25, label %29

25:                                               ; preds = %20
  %26 = load ptr, ptr %2, align 8, !tbaa !79
  %27 = getelementptr inbounds nuw %struct.errorInfo, ptr %26, i32 0, i32 2
  %28 = load ptr, ptr %27, align 8, !tbaa !84
  call void @sdsfree(ptr noundef %28)
  br label %29

29:                                               ; preds = %25, %20
  ret void
}