; Function Attrs: nounwind uwtable
define dso_local void @luaErrorInformationDiscard(ptr noundef readonly captures(none) %0) local_unnamed_addr #0 {
  %2 = load ptr, ptr %0, align 8, !tbaa !72
  %.not = icmp eq ptr %2, null
  br i1 %.not, label %4, label %3

3:                                                ; preds = %1
  tail call void @sdsfree(ptr noundef nonnull %2) #11
  br label %4

4:                                                ; preds = %3, %1
  %5 = getelementptr inbounds nuw i8, ptr %0, i64 8
  %6 = load ptr, ptr %5, align 8, !tbaa !74
  %.not8 = icmp eq ptr %6, null
  br i1 %.not8, label %8, label %7

7:                                                ; preds = %4
  tail call void @sdsfree(ptr noundef nonnull %6) #11
  br label %8

8:                                                ; preds = %7, %4
  %9 = getelementptr inbounds nuw i8, ptr %0, i64 16
  %10 = load ptr, ptr %9, align 8, !tbaa !75
  %.not9 = icmp eq ptr %10, null
  br i1 %.not9, label %12, label %11

11:                                               ; preds = %8
  tail call void @sdsfree(ptr noundef nonnull %10) #11
  br label %12

12:                                               ; preds = %11, %8
  ret void
}